
Memory Configuration

Name             Origin             Length             Attributes
*default*        0x0000000000000000 0xffffffffffffffff

Linker script and memory map

LOAD sa6.o
                0x0000000000000000                . = 0x0

.text           0x0000000000000000        0x0
 .text          0x0000000000000000        0x0 sa6.o

.rodata         0x0000000000000000     0x4e68
 *(.sa6_image_num)
 .sa6_image_num
                0x0000000000000000        0x8 sa6.o
                0x0000000000000000                image_num
                0x0000000000000008                . = 0x8
 *(.sa6_bl31src_addr)
 .sa6_bl31src_addr
                0x0000000000000008        0x8 sa6.o
                0x0000000000000008                bl31src_addr
                0x0000000000000010                . = 0x10
 *(.sa6_bl31partition)
 .sa6_bl31partition
                0x0000000000000010        0x8 sa6.o
                0x0000000000000010                bl31partition
                0x0000000000000018                . = 0x18
 *(.sa6_bl32src_addr)
 .sa6_bl32src_addr
                0x0000000000000018        0x8 sa6.o
                0x0000000000000018                bl32src_addr
                0x0000000000000020                . = 0x20
 *(.sa6_bl32partition)
 .sa6_bl32partition
                0x0000000000000020        0x8 sa6.o
                0x0000000000000020                bl32partition
                0x0000000000000028                . = 0x28
 *(.sa6_bl33src_addr)
 .sa6_bl33src_addr
                0x0000000000000028        0x8 sa6.o
                0x0000000000000028                bl33src_addr
                0x0000000000000030                . = 0x30
 *(.sa6_bl33partition)
 .sa6_bl33partition
                0x0000000000000030        0x8 sa6.o
                0x0000000000000030                bl33partition
                0x0000000000000038                . = 0x38
 *(.sa6_bl332src_addr)
 .sa6_bl332src_addr
                0x0000000000000038        0x8 sa6.o
                0x0000000000000038                bl332src_addr
                0x0000000000000040                . = 0x40
 *(.sa6_bl332partition)
 .sa6_bl332partition
                0x0000000000000040        0x8 sa6.o
                0x0000000000000040                bl332partition
                0x0000000000000048                . = 0x48
 *(.sa6_bl333src_addr)
 .sa6_bl333src_addr
                0x0000000000000048        0x8 sa6.o
                0x0000000000000048                bl333src_addr
                0x0000000000000050                . = 0x50
 *(.sa6_bl333partition)
 .sa6_bl333partition
                0x0000000000000050        0x8 sa6.o
                0x0000000000000050                bl333partition
                0x0000000000000058                . = 0x58
 *(.sa6_bl334src_addr)
 .sa6_bl334src_addr
                0x0000000000000058        0x8 sa6.o
                0x0000000000000058                bl334src_addr
                0x0000000000000060                . = 0x60
 *(.sa6_bl334partition)
 .sa6_bl334partition
                0x0000000000000060        0x8 sa6.o
                0x0000000000000060                bl334partition
                0x0000000000000068                . = 0x68
 *(.sa6_bl335src_addr)
 .sa6_bl335src_addr
                0x0000000000000068        0x8 sa6.o
                0x0000000000000068                bl335src_addr
                0x0000000000000070                . = 0x70
 *(.sa6_bl335partition)
 .sa6_bl335partition
                0x0000000000000070        0x8 sa6.o
                0x0000000000000070                bl335partition
                0x0000000000000078                . = 0x78
 *(.sa6_bl336src_addr)
 .sa6_bl336src_addr
                0x0000000000000078        0x8 sa6.o
                0x0000000000000078                bl336src_addr
                0x0000000000000080                . = 0x80
 *(.sa6_bl336partition)
 .sa6_bl336partition
                0x0000000000000080        0x8 sa6.o
                0x0000000000000080                bl336partition
                0x0000000000000088                . = 0x88
 *(.sa6_bl337src_addr)
 .sa6_bl337src_addr
                0x0000000000000088        0x8 sa6.o
                0x0000000000000088                bl337src_addr
                0x0000000000000090                . = 0x90
 *(.sa6_bl337partition)
 .sa6_bl337partition
                0x0000000000000090        0x8 sa6.o
                0x0000000000000090                bl337partition
                0x0000000000000098                . = 0x98
 *(.sa6_bl338src_addr)
 .sa6_bl338src_addr
                0x0000000000000098        0x8 sa6.o
                0x0000000000000098                bl338src_addr
                0x00000000000000a0                . = 0xa0
 *(.sa6_bl338partition)
 .sa6_bl338partition
                0x00000000000000a0        0x8 sa6.o
                0x00000000000000a0                bl338partition
                0x0000000000000554                . = 0x554
 *fill*         0x00000000000000a8      0x4ac 
 *(.sa6_bl31dst_addr)
 .sa6_bl31dst_addr
                0x0000000000000554        0x4 sa6.o
                0x0000000000000554                bl31dst_addr
                0x0000000000000558                . = 0x558
 *(.sa6_bl31dst_addrh)
 .sa6_bl31dst_addrh
                0x0000000000000558        0x4 sa6.o
                0x0000000000000558                bl31dst_addrh
                0x0000000000000664                . = 0x664
 *fill*         0x000000000000055c      0x108 
 *(.sa6_bl31dst_size)
 .sa6_bl31dst_size
                0x0000000000000664        0x4 sa6.o
                0x0000000000000664                bl31dst_size
                0x0000000000000d54                . = 0xd54
 *fill*         0x0000000000000668      0x6ec 
 *(.sa6_bl32dst_addr)
 .sa6_bl32dst_addr
                0x0000000000000d54        0x4 sa6.o
                0x0000000000000d54                bl32dst_addr
                0x0000000000000d58                . = 0xd58
 *(.sa6_bl32dst_addrh)
 .sa6_bl32dst_addrh
                0x0000000000000d58        0x4 sa6.o
                0x0000000000000d58                bl32dst_addrh
                0x0000000000000e64                . = 0xe64
 *fill*         0x0000000000000d5c      0x108 
 *(.sa6_bl32dst_size)
 .sa6_bl32dst_size
                0x0000000000000e64        0x4 sa6.o
                0x0000000000000e64                bl32dst_size
                0x0000000000001554                . = 0x1554
 *fill*         0x0000000000000e68      0x6ec 
 *(.sa6_bl33dst_addr)
 .sa6_bl33dst_addr
                0x0000000000001554        0x4 sa6.o
                0x0000000000001554                bl33dst_addr
                0x0000000000001558                . = 0x1558
 *(.sa6_bl33dst_addrh)
 .sa6_bl33dst_addrh
                0x0000000000001558        0x4 sa6.o
                0x0000000000001558                bl33dst_addrh
                0x0000000000001664                . = 0x1664
 *fill*         0x000000000000155c      0x108 
 *(.sa6_bl33dst_size)
 .sa6_bl33dst_size
                0x0000000000001664        0x4 sa6.o
                0x0000000000001664                bl33dst_size
                0x0000000000001d54                . = 0x1d54
 *fill*         0x0000000000001668      0x6ec 
 *(.sa6_bl332dst_addr)
 .sa6_bl332dst_addr
                0x0000000000001d54        0x4 sa6.o
                0x0000000000001d54                bl332dst_addr
                0x0000000000001d58                . = 0x1d58
 *(.sa6_bl332dst_addrh)
 .sa6_bl332dst_addrh
                0x0000000000001d58        0x4 sa6.o
                0x0000000000001d58                bl332dst_addrh
                0x0000000000001e64                . = 0x1e64
 *fill*         0x0000000000001d5c      0x108 
 *(.sa6_bl332dst_size)
 .sa6_bl332dst_size
                0x0000000000001e64        0x4 sa6.o
                0x0000000000001e64                bl332dst_size
                0x0000000000002554                . = 0x2554
 *fill*         0x0000000000001e68      0x6ec 
 *(.sa6_bl333dst_addr)
 .sa6_bl333dst_addr
                0x0000000000002554        0x4 sa6.o
                0x0000000000002554                bl333dst_addr
                0x0000000000002558                . = 0x2558
 *(.sa6_bl333dst_addrh)
 .sa6_bl333dst_addrh
                0x0000000000002558        0x4 sa6.o
                0x0000000000002558                bl333dst_addrh
                0x0000000000002664                . = 0x2664
 *fill*         0x000000000000255c      0x108 
 *(.sa6_bl333dst_size)
 .sa6_bl333dst_size
                0x0000000000002664        0x4 sa6.o
                0x0000000000002664                bl333dst_size
                0x0000000000002d54                . = 0x2d54
 *fill*         0x0000000000002668      0x6ec 
 *(.sa6_bl334dst_addr)
 .sa6_bl334dst_addr
                0x0000000000002d54        0x4 sa6.o
                0x0000000000002d54                bl334dst_addr
                0x0000000000002d58                . = 0x2d58
 *(.sa6_bl334dst_addrh)
 .sa6_bl334dst_addrh
                0x0000000000002d58        0x4 sa6.o
                0x0000000000002d58                bl334dst_addrh
                0x0000000000002e64                . = 0x2e64
 *fill*         0x0000000000002d5c      0x108 
 *(.sa6_bl334dst_size)
 .sa6_bl334dst_size
                0x0000000000002e64        0x4 sa6.o
                0x0000000000002e64                bl334dst_size
                0x0000000000003554                . = 0x3554
 *fill*         0x0000000000002e68      0x6ec 
 *(.sa6_bl335dst_addr)
 .sa6_bl335dst_addr
                0x0000000000003554        0x4 sa6.o
                0x0000000000003554                bl335dst_addr
                0x0000000000003558                . = 0x3558
 *(.sa6_bl335dst_addrh)
 .sa6_bl335dst_addrh
                0x0000000000003558        0x4 sa6.o
                0x0000000000003558                bl335dst_addrh
                0x0000000000003664                . = 0x3664
 *fill*         0x000000000000355c      0x108 
 *(.sa6_bl335dst_size)
 .sa6_bl335dst_size
                0x0000000000003664        0x4 sa6.o
                0x0000000000003664                bl335dst_size
                0x0000000000003d54                . = 0x3d54
 *fill*         0x0000000000003668      0x6ec 
 *(.sa6_bl336dst_addr)
 .sa6_bl336dst_addr
                0x0000000000003d54        0x4 sa6.o
                0x0000000000003d54                bl336dst_addr
                0x0000000000003d58                . = 0x3d58
 *(.sa6_bl336dst_addrh)
 .sa6_bl336dst_addrh
                0x0000000000003d58        0x4 sa6.o
                0x0000000000003d58                bl336dst_addrh
                0x0000000000003e64                . = 0x3e64
 *fill*         0x0000000000003d5c      0x108 
 *(.sa6_bl336dst_size)
 .sa6_bl336dst_size
                0x0000000000003e64        0x4 sa6.o
                0x0000000000003e64                bl336dst_size
                0x0000000000004554                . = 0x4554
 *fill*         0x0000000000003e68      0x6ec 
 *(.sa6_bl337dst_addr)
 .sa6_bl337dst_addr
                0x0000000000004554        0x4 sa6.o
                0x0000000000004554                bl337dst_addr
                0x0000000000004558                . = 0x4558
 *(.sa6_bl337dst_addrh)
 .sa6_bl337dst_addrh
                0x0000000000004558        0x4 sa6.o
                0x0000000000004558                bl337dst_addrh
                0x0000000000004664                . = 0x4664
 *fill*         0x000000000000455c      0x108 
 *(.sa6_bl337dst_size)
 .sa6_bl337dst_size
                0x0000000000004664        0x4 sa6.o
                0x0000000000004664                bl337dst_size
                0x0000000000004d54                . = 0x4d54
 *fill*         0x0000000000004668      0x6ec 
 *(.sa6_bl338dst_addr)
 .sa6_bl338dst_addr
                0x0000000000004d54        0x4 sa6.o
                0x0000000000004d54                bl338dst_addr
                0x0000000000004d58                . = 0x4d58
 *(.sa6_bl338dst_addrh)
 .sa6_bl338dst_addrh
                0x0000000000004d58        0x4 sa6.o
                0x0000000000004d58                bl338dst_addrh
                0x0000000000004e64                . = 0x4e64
 *fill*         0x0000000000004d5c      0x108 
 *(.sa6_bl338dst_size)
 .sa6_bl338dst_size
                0x0000000000004e64        0x4 sa6.o
                0x0000000000004e64                bl338dst_size
OUTPUT(cert_header_sa6.elf elf64-littleaarch64)

.data           0x0000000000004e68        0x0
 .data          0x0000000000004e68        0x0 sa6.o

.bss            0x0000000000004e68        0x0
 .bss           0x0000000000004e68        0x0 sa6.o

.comment        0x0000000000000000       0x11
 .comment       0x0000000000000000       0x11 sa6.o
                                         0x12 (size before relaxing)

.note.GNU-stack
                0x0000000000000000        0x0
 .note.GNU-stack
                0x0000000000000000        0x0 sa6.o
